target datalayout = "e-m:e-p270:32:32-p271:32:32-p272:64:64-i64:64-i128:128-f80:128-n8:16:32:64-S128"
target triple = "x86_64-pc-linux-gnu"

%struct.BackendGlobalData = type <{ ptr, ptr, i8, i8, i8, i8, i8, i8, i8, i8, i8, [3 x i8], i32, ptr, ptr, ptr, ptr, ptr, ptr, ptr, ptr, ptr, ptr, ptr, ptr, ptr, i32, %struct.jvmtiCapabilities, i8, [3 x i8], %struct.jvmtiEventCallbacks, ptr, ptr, ptr, ptr, ptr, ptr, ptr, i32, [4 x i8], ptr, i64, i32, [4 x i8], ptr, i32, i32, i8, i8, [6 x i8] }>
%struct.jvmtiCapabilities = type { i64, i64 }
%struct.jvmtiEventCallbacks = type { ptr, ptr, ptr, ptr, ptr, ptr, ptr, ptr, ptr, ptr, ptr, ptr, ptr, ptr, ptr, ptr, ptr, ptr, ptr, ptr, ptr, ptr, ptr, ptr, ptr, ptr, ptr, ptr, ptr, ptr, ptr, ptr, ptr, ptr, ptr, ptr, ptr, ptr, ptr }
%struct.RefNode = type { i64, ptr, ptr, i32, i8, i8 }

@gdata = external global ptr, align 8
@.str.2 = private unnamed_addr constant [52 x i8] c"src/jdk.jdwp.agent/share/native/libjdwp/commonRef.c\00", align 1
@stderr = external global ptr, align 8
@.str.6 = private unnamed_addr constant [17 x i8] c"JDWP exit error \00", align 1
@.str.7 = private unnamed_addr constant [2 x i8] c"\0A\00", align 1
@.str.8 = private unnamed_addr constant [19 x i8] c"%s(%d): %s [%s:%d]\00", align 1
@.str.18 = private unnamed_addr constant [18 x i8] c"RefNode count < 0\00", align 1

; Function Attrs: nounwind uwtable
define internal i32 @hashBucket(i64 noundef %0) #0 {
  %2 = alloca i64, align 8
  store i64 %0, ptr %2, align 8
  %3 = load i64, ptr %2, align 8
  %4 = trunc i64 %3 to i32
  %5 = load ptr, ptr @gdata, align 8
  %6 = getelementptr inbounds %struct.BackendGlobalData, ptr %5, i32 0, i32 45
  %7 = load i32, ptr %6, align 8
  %8 = sub nsw i32 %7, 1
  %9 = and i32 %4, %8
  ret i32 %9
}

; Function Attrs: nounwind uwtable
define internal void @deleteNodeByID(ptr noundef %0, i64 noundef %1, i32 noundef %2) #0 {
  %4 = alloca ptr, align 8
  %5 = alloca i64, align 8
  %6 = alloca i32, align 4
  %7 = alloca i32, align 4
  %8 = alloca ptr, align 8
  %9 = alloca ptr, align 8
  store ptr %0, ptr %4, align 8
  store i64 %1, ptr %5, align 8
  store i32 %2, ptr %6, align 4
  %10 = load i64, ptr %5, align 8
  %11 = call i32 @hashBucket(i64 noundef %10)
  store i32 %11, ptr %7, align 4
  %12 = load ptr, ptr @gdata, align 8
  %13 = getelementptr inbounds %struct.BackendGlobalData, ptr %12, i32 0, i32 44
  %14 = load ptr, ptr %13, align 8
  %15 = load i32, ptr %7, align 4
  %16 = sext i32 %15 to i64
  %17 = getelementptr inbounds ptr, ptr %14, i64 %16
  %18 = load ptr, ptr %17, align 8
  store ptr %18, ptr %8, align 8
  store ptr null, ptr %9, align 8
  br label %19

19:                                               ; preds = %76, %3
  %20 = load ptr, ptr %8, align 8
  %21 = icmp ne ptr %20, null
  br i1 %21, label %22, label %81

22:                                               ; preds = %19
  %23 = load i64, ptr %5, align 8
  %24 = load ptr, ptr %8, align 8
  %25 = getelementptr inbounds %struct.RefNode, ptr %24, i32 0, i32 0
  %26 = load i64, ptr %25, align 8
  %27 = icmp eq i64 %23, %26
  br i1 %27, label %28, label %76

28:                                               ; preds = %22
  %29 = load i32, ptr %6, align 4
  %30 = icmp ne i32 %29, -1
  br i1 %30, label %31, label %37

31:                                               ; preds = %28
  %32 = load i32, ptr %6, align 4
  %33 = load ptr, ptr %8, align 8
  %34 = getelementptr inbounds %struct.RefNode, ptr %33, i32 0, i32 3
  %35 = load i32, ptr %34, align 8
  %36 = sub nsw i32 %35, %32
  store i32 %36, ptr %34, align 8
  br label %40

37:                                               ; preds = %28
  %38 = load ptr, ptr %8, align 8
  %39 = getelementptr inbounds %struct.RefNode, ptr %38, i32 0, i32 3
  store i32 0, ptr %39, align 8
  br label %40

40:                                               ; preds = %37, %31
  %41 = load ptr, ptr %8, align 8
  %42 = getelementptr inbounds %struct.RefNode, ptr %41, i32 0, i32 3
  %43 = load i32, ptr %42, align 8
  %44 = icmp sle i32 %43, 0
  br i1 %44, label %45, label %75

45:                                               ; preds = %40
  %46 = load ptr, ptr %8, align 8
  %47 = getelementptr inbounds %struct.RefNode, ptr %46, i32 0, i32 3
  %48 = load i32, ptr %47, align 8
  %49 = icmp slt i32 %48, 0
  br i1 %49, label %50, label %53

50:                                               ; preds = %45
  %51 = load ptr, ptr @stderr, align 8
  %52 = call ptr @jvmtiErrorText(i32 noundef 181)
  call void (ptr, ptr, ptr, ptr, ...) @print_message(ptr noundef %51, ptr noundef @.str.6, ptr noundef @.str.7, ptr noundef @.str.8, ptr noundef %52, i32 noundef 181, ptr noundef @.str.18, ptr noundef @.str.2, i32 noundef 277)
  call void @debugInit_exit(i32 noundef 181, ptr noundef @.str.18)
  br label %53

53:                                               ; preds = %50, %45
  %54 = load ptr, ptr %9, align 8
  %55 = icmp eq ptr %54, null
  br i1 %55, label %56, label %66

56:                                               ; preds = %53
  %57 = load ptr, ptr %8, align 8
  %58 = getelementptr inbounds %struct.RefNode, ptr %57, i32 0, i32 2
  %59 = load ptr, ptr %58, align 8
  %60 = load ptr, ptr @gdata, align 8
  %61 = getelementptr inbounds %struct.BackendGlobalData, ptr %60, i32 0, i32 44
  %62 = load ptr, ptr %61, align 8
  %63 = load i32, ptr %7, align 4
  %64 = sext i32 %63 to i64
  %65 = getelementptr inbounds ptr, ptr %62, i64 %64
  store ptr %59, ptr %65, align 8
  br label %72

66:                                               ; preds = %53
  %67 = load ptr, ptr %8, align 8
  %68 = getelementptr inbounds %struct.RefNode, ptr %67, i32 0, i32 2
  %69 = load ptr, ptr %68, align 8
  %70 = load ptr, ptr %9, align 8
  %71 = getelementptr inbounds %struct.RefNode, ptr %70, i32 0, i32 2
  store ptr %69, ptr %71, align 8
  br label %72

72:                                               ; preds = %66, %56
  %73 = load ptr, ptr %4, align 8
  %74 = load ptr, ptr %8, align 8
  call void @deleteNode(ptr noundef %73, ptr noundef %74)
  br label %75

75:                                               ; preds = %72, %40
  br label %81

76:                                               ; preds = %22
  %77 = load ptr, ptr %8, align 8
  store ptr %77, ptr %9, align 8
  %78 = load ptr, ptr %8, align 8
  %79 = getelementptr inbounds %struct.RefNode, ptr %78, i32 0, i32 2
  %80 = load ptr, ptr %79, align 8
  store ptr %80, ptr %8, align 8
  br label %19, !llvm.loop !12

81:                                               ; preds = %75, %19
  ret void
}