; Function Attrs: nounwind uwtable
define internal fastcc void @deleteNodeByID(ptr noundef %0, i64 noundef %1, i32 noundef %2) unnamed_addr #0 {
  %4 = trunc i64 %1 to i32
  %5 = load ptr, ptr @gdata, align 8
  %6 = getelementptr inbounds i8, ptr %5, i64 568
  %7 = load i32, ptr %6, align 8
  %8 = add nsw i32 %7, -1
  %9 = and i32 %8, %4
  %10 = getelementptr inbounds i8, ptr %5, i64 560
  %11 = load ptr, ptr %10, align 8
  %12 = sext i32 %9 to i64
  %13 = getelementptr inbounds ptr, ptr %11, i64 %12
  %.01925 = load ptr, ptr %13, align 8
  %.not26 = icmp eq ptr %.01925, null
  br i1 %.not26, label %.loopexit, label %.lr.ph.preheader

.lr.ph.preheader:                                 ; preds = %3
  %14 = load i64, ptr %.01925, align 8
  %15 = icmp eq i64 %14, %1
  br i1 %15, label %.lr.ph._crit_edge, label %.lr.ph37

.lr.ph:                                           ; preds = %.lr.ph37
  %16 = load i64, ptr %.019, align 8
  %17 = icmp eq i64 %16, %1
  br i1 %17, label %.lr.ph._crit_edge, label %.lr.ph37, !llvm.loop !12

.lr.ph._crit_edge:                                ; preds = %.lr.ph, %.lr.ph.preheader
  %.01928.lcssa = phi ptr [ %.01925, %.lr.ph.preheader ], [ %.019, %.lr.ph ]
  %.027.lcssa = phi ptr [ null, %.lr.ph.preheader ], [ %.0192836, %.lr.ph ]
  %.not22 = icmp eq i32 %2, -1
  %18 = getelementptr inbounds i8, ptr %.01928.lcssa, i64 24
  br i1 %.not22, label %.thread31, label %19

.thread31:                                        ; preds = %.lr.ph._crit_edge
  store i32 0, ptr %18, align 8
  br label %28

19:                                               ; preds = %.lr.ph._crit_edge
  %20 = load i32, ptr %18, align 8
  %21 = sub nsw i32 %20, %2
  store i32 %21, ptr %18, align 8
  %22 = icmp slt i32 %21, 1
  br i1 %22, label %23, label %.loopexit

23:                                               ; preds = %19
  %24 = icmp slt i32 %21, 0
  br i1 %24, label %25, label %28

25:                                               ; preds = %23
  %26 = load ptr, ptr @stderr, align 8
  %27 = tail call ptr @jvmtiErrorText(i32 noundef 181) #5
  tail call void (ptr, ptr, ptr, ptr, ...) @print_message(ptr noundef %26, ptr noundef nonnull @.str.6, ptr noundef nonnull @.str.7, ptr noundef nonnull @.str.8, ptr noundef %27, i32 noundef 181, ptr noundef nonnull @.str.18, ptr noundef nonnull @.str.2, i32 noundef 277) #5
  tail call void @debugInit_exit(i32 noundef 181, ptr noundef nonnull @.str.18) #5
  br label %28

28:                                               ; preds = %.thread31, %25, %23
  %29 = icmp eq ptr %.027.lcssa, null
  %30 = getelementptr inbounds i8, ptr %.01928.lcssa, i64 16
  %31 = load ptr, ptr %30, align 8
  br i1 %29, label %32, label %37

32:                                               ; preds = %28
  %33 = load ptr, ptr @gdata, align 8
  %34 = getelementptr inbounds i8, ptr %33, i64 560
  %35 = load ptr, ptr %34, align 8
  %36 = getelementptr inbounds ptr, ptr %35, i64 %12
  br label %39

37:                                               ; preds = %28
  %38 = getelementptr inbounds i8, ptr %.027.lcssa, i64 16
  br label %39

39:                                               ; preds = %37, %32
  %.sink = phi ptr [ %38, %37 ], [ %36, %32 ]
  store ptr %31, ptr %.sink, align 8
  tail call fastcc void @deleteNode(ptr noundef %0, ptr noundef nonnull %.01928.lcssa)
  br label %.loopexit

.lr.ph37:                                         ; preds = %.lr.ph.preheader, %.lr.ph
  %.0192836 = phi ptr [ %.019, %.lr.ph ], [ %.01925, %.lr.ph.preheader ]
  %40 = getelementptr inbounds i8, ptr %.0192836, i64 16
  %.019 = load ptr, ptr %40, align 8
  %.not = icmp eq ptr %.019, null
  br i1 %.not, label %.loopexit, label %.lr.ph, !llvm.loop !12

.loopexit:                                        ; preds = %.lr.ph37, %3, %19, %39
  ret void
}